target datalayout = "e-m:e-p270:32:32-p271:32:32-p272:64:64-i64:64-i128:128-f80:128-n8:16:32:64-S128"
target triple = "x86_64-pc-linux-gnu"

%struct.buf_chunk = type { ptr, i64, i64, i64, %union.anon }
%union.anon = type { ptr }
%struct.bufq = type { ptr, ptr, ptr, ptr, i64, i64, i64, i32 }

; Function Attrs: nounwind uwtable
define internal void @chunk_peek_at(ptr noundef %0, i64 noundef %1, ptr noundef %2, ptr noundef %3) #0 {
  %5 = alloca ptr, align 8
  %6 = alloca i64, align 8
  %7 = alloca ptr, align 8
  %8 = alloca ptr, align 8
  store ptr %0, ptr %5, align 8
  store i64 %1, ptr %6, align 8
  store ptr %2, ptr %7, align 8
  store ptr %3, ptr %8, align 8
  %9 = load ptr, ptr %5, align 8
  %10 = getelementptr inbounds %struct.buf_chunk, ptr %9, i32 0, i32 2
  %11 = load i64, ptr %10, align 8
  %12 = load i64, ptr %6, align 8
  %13 = add i64 %12, %11
  store i64 %13, ptr %6, align 8
  br label %14

14:                                               ; preds = %4
  br label %15

15:                                               ; preds = %14
  %16 = load ptr, ptr %5, align 8
  %17 = getelementptr inbounds %struct.buf_chunk, ptr %16, i32 0, i32 4
  %18 = load i64, ptr %6, align 8
  %19 = getelementptr inbounds [1 x i8], ptr %17, i64 0, i64 %18
  %20 = load ptr, ptr %7, align 8
  store ptr %19, ptr %20, align 8
  %21 = load ptr, ptr %5, align 8
  %22 = getelementptr inbounds %struct.buf_chunk, ptr %21, i32 0, i32 3
  %23 = load i64, ptr %22, align 8
  %24 = load i64, ptr %6, align 8
  %25 = sub i64 %23, %24
  %26 = load ptr, ptr %8, align 8
  store i64 %25, ptr %26, align 8
  ret void
}

; Function Attrs: nounwind uwtable
define internal i64 @chunk_len(ptr noundef %0) #0 {
  %2 = alloca ptr, align 8
  store ptr %0, ptr %2, align 8
  %3 = load ptr, ptr %2, align 8
  %4 = getelementptr inbounds %struct.buf_chunk, ptr %3, i32 0, i32 3
  %5 = load i64, ptr %4, align 8
  %6 = load ptr, ptr %2, align 8
  %7 = getelementptr inbounds %struct.buf_chunk, ptr %6, i32 0, i32 2
  %8 = load i64, ptr %7, align 8
  %9 = sub i64 %5, %8
  ret i64 %9
}

; Function Attrs: nounwind uwtable
define dso_local zeroext i1 @Curl_bufq_peek_at(ptr noundef %0, i64 noundef %1, ptr noundef %2, ptr noundef %3) #0 {
  %5 = alloca i1, align 1
  %6 = alloca ptr, align 8
  %7 = alloca i64, align 8
  %8 = alloca ptr, align 8
  %9 = alloca ptr, align 8
  %10 = alloca ptr, align 8
  %11 = alloca i64, align 8
  store ptr %0, ptr %6, align 8
  store i64 %1, ptr %7, align 8
  store ptr %2, ptr %8, align 8
  store ptr %3, ptr %9, align 8
  %12 = load ptr, ptr %6, align 8
  %13 = getelementptr inbounds %struct.bufq, ptr %12, i32 0, i32 0
  %14 = load ptr, ptr %13, align 8
  store ptr %14, ptr %10, align 8
  br label %15

15:                                               ; preds = %28, %4
  %16 = load ptr, ptr %10, align 8
  %17 = icmp ne ptr %16, null
  br i1 %17, label %18, label %40

18:                                               ; preds = %15
  %19 = load ptr, ptr %10, align 8
  %20 = call i64 @chunk_len(ptr noundef %19)
  store i64 %20, ptr %11, align 8
  %21 = load i64, ptr %11, align 8
  %22 = icmp ne i64 %21, 0
  br i1 %22, label %24, label %23

23:                                               ; preds = %18
  br label %40

24:                                               ; preds = %18
  %25 = load i64, ptr %7, align 8
  %26 = load i64, ptr %11, align 8
  %27 = icmp uge i64 %25, %26
  br i1 %27, label %28, label %35

28:                                               ; preds = %24
  %29 = load i64, ptr %11, align 8
  %30 = load i64, ptr %7, align 8
  %31 = sub i64 %30, %29
  store i64 %31, ptr %7, align 8
  %32 = load ptr, ptr %10, align 8
  %33 = getelementptr inbounds %struct.buf_chunk, ptr %32, i32 0, i32 0
  %34 = load ptr, ptr %33, align 8
  store ptr %34, ptr %10, align 8
  br label %15, !llvm.loop !13

35:                                               ; preds = %24
  %36 = load ptr, ptr %10, align 8
  %37 = load i64, ptr %7, align 8
  %38 = load ptr, ptr %8, align 8
  %39 = load ptr, ptr %9, align 8
  call void @chunk_peek_at(ptr noundef %36, i64 noundef %37, ptr noundef %38, ptr noundef %39)
  store i1 true, ptr %5, align 1
  br label %43

40:                                               ; preds = %23, %15
  %41 = load ptr, ptr %8, align 8
  store ptr null, ptr %41, align 8
  %42 = load ptr, ptr %9, align 8
  store i64 0, ptr %42, align 8
  store i1 false, ptr %5, align 1
  br label %43

43:                                               ; preds = %40, %35
  %44 = load i1, ptr %5, align 1
  ret i1 %44
}