; Function Attrs: nofree norecurse nosync nounwind memory(read, argmem: readwrite, inaccessiblemem: none) uwtable
define dso_local noundef zeroext i1 @Curl_bufq_peek_at(ptr noundef readonly captures(none) %0, i64 noundef %1, ptr noundef writeonly captures(none) %2, ptr noundef writeonly captures(none) %3) local_unnamed_addr #7 {
  %.01523 = load ptr, ptr %0, align 8
  %.not24 = icmp eq ptr %.01523, null
  br i1 %.not24, label %._crit_edge, label %.lr.ph

.lr.ph:                                           ; preds = %4, %9
  %.01526 = phi ptr [ %.015, %9 ], [ %.01523, %4 ]
  %.01625 = phi i64 [ %10, %9 ], [ %1, %4 ]
  %5 = getelementptr i8, ptr %.01526, i64 16
  %.015.val = load i64, ptr %5, align 8
  %6 = getelementptr i8, ptr %.01526, i64 24
  %.015.val20 = load i64, ptr %6, align 8
  %7 = sub i64 %.015.val20, %.015.val
  %.not18 = icmp eq i64 %.015.val20, %.015.val
  br i1 %.not18, label %._crit_edge, label %8

8:                                                ; preds = %.lr.ph
  %.not19 = icmp ult i64 %.01625, %7
  br i1 %.not19, label %11, label %9

9:                                                ; preds = %8
  %10 = sub nuw i64 %.01625, %7
  %.015 = load ptr, ptr %.01526, align 8
  %.not = icmp eq ptr %.015, null
  br i1 %.not, label %._crit_edge, label %.lr.ph, !llvm.loop !13

11:                                               ; preds = %8
  %12 = getelementptr i8, ptr %.01526, i64 24
  %13 = add i64 %.015.val, %.01625
  %14 = getelementptr inbounds nuw i8, ptr %.01526, i64 32
  %15 = getelementptr inbounds [1 x i8], ptr %14, i64 0, i64 %13
  store ptr %15, ptr %2, align 8
  %16 = load i64, ptr %12, align 8
  %17 = sub i64 %16, %13
  br label %18

._crit_edge:                                      ; preds = %9, %.lr.ph, %4
  store ptr null, ptr %2, align 8
  br label %18

18:                                               ; preds = %._crit_edge, %11
  %storemerge = phi i64 [ %17, %11 ], [ 0, %._crit_edge ]
  %.0 = phi i1 [ true, %11 ], [ false, %._crit_edge ]
  store i64 %storemerge, ptr %3, align 8
  ret i1 %.0
}